(lp0
(dp1
S'Surabaya'
p2
(lp3
F-7.2574719
aF112.7520883
asS'K\xc3\xa9nitra'
p4
(lp5
F34.2540503
aF-6.5890166
asS'Ngaound\xc3\xa9r\xc3\xa9'
p6
(lp7
F7.338148800000001
aF13.5668302
asS'Brazzaville'
p8
(lp9
F-4.2633597
aF15.2428853
asS'Lom\xc3\xa9'
p10
(lp11
F6.1724969
aF1.2313618
asS'Santo Domingo'
p12
(lp13
F18.4860575
aF-69.93121169999999
asS'S\xc3\xa9m\xc3\xa9-Podji'
p14
(lp15
F6.4224777
aF2.5990835
asS'Oujda'
p16
(lp17
F34.681962
aF-1.900155
asS'F\xc3\xa8s'
p18
(lp19
F34.0181246
aF-5.0078451
asS'Safi'
p20
(lp21
F32.3008151
aF-9.2272033
asS'Bobo-Dioulasso'
p22
(lp23
F11.1649219
aF-4.3051542
asS'Garoua'
p24
(lp25
F9.322601599999999
aF13.393389
asS'Marrakech'
p26
(lp27
F31.6294723
aF-7.981084500000001
asS'Dassa-Zoum\xc3\xa9'
p28
(lp29
F7.784908700000001
aF2.1990763
asS'Maroua'
p30
(lp31
F10.5925289
aF14.3210095
asS'Bafoussam'
p32
(lp33
F5.4807517
aF10.4284178
asS'Tanger'
p34
(lp35
F35.7594651
aF-5.833954299999999
asS'Yaound\xc3\xa9'
p36
(lp37
F3.8480325
aF11.5020752
asS'Fianarantsoa'
p38
(lp39
F-21.4546147
aF47.08750449999999
asS'Khourigba'
p40
(lp41
F32.886023
aF-6.9208655
asS'Ej Jadida'
p42
(lp43
F33.2316326
aF-8.500711599999999
asS'Jakarta'
p44
(lp45
F-6.1744651
aF106.822745
asS'Rabat'
p46
(lp47
F33.9715904
aF-6.8498129
asS'Bandung'
p48
(lp49
F-6.9174639
aF107.6191228
asS'Treichville'
p50
(lp51
F5.2920877
aF-4.013361
asS'Agadir'
p52
(lp53
F30.4277547
aF-9.5981072
asS'Accra'
p54
(lp55
F5.6037168
aF-0.1869644
asS'Belel'
p56
(lp57
F7.0513571
aF14.4344853
asS'Beni Khiar'
p58
(lp59
F36.4596214
aF10.7830826
asS'Khenisset'
p60
(lp61
F33.8153704
aF-6.0573302
asS'Cotonou'
p62
(lp63
F6.3702928
aF2.3912362
asS'Settat'
p64
(lp65
F32.99242419999999
aF-7.622266499999999
asS'Beni melal'
p66
(lp67
F32.342443
aF-6.375799
asS'Nkongsamba'
p68
(lp69
F4.974116899999999
aF9.9353318
asS'Laayoune'
p70
(lp71
F27.1252867
aF-13.1625005
asS'Meknes'
p72
(lp73
F33.8730164
aF-5.5407299
asS'Yamoussoukro'
p74
(lp75
F6.827622799999999
aF-5.2893433
asS'Bocanda'
p76
(lp77
F7.0659131
aF-4.495428899999999
asS'Libreville'
p78
(lp79
F0.4161976
aF9.4672676
asS'Bamenda'
p80
(lp81
F5.9630513
aF10.1591213
asS'Ts\xc3\xa9vi\xc3\xa9'
p82
(lp83
F6.432945699999999
aF1.2073261
asS'Douala'
p84
(lp85
F4.0510564
aF9.7678687
asa(dp86
g2
(lp87
F-7.4074719
aF112.60208829999999
aF-7.107471899999999
aF112.9020883
asg4
(lp88
F34.104050300000004
aF-6.7390166
aF34.4040503
aF-6.4390165999999995
asg6
(lp89
F7.1881488000000004
aF13.4168302
aF7.488148800000001
aF13.7168302
asg8
(lp90
F-4.4133597
aF15.092885299999999
aF-4.113359699999999
aF15.3928853
asg10
(lp91
F6.022496899999999
aF1.0813618
aF6.3224969
aF1.3813617999999999
asg12
(lp92
F18.336057500000003
aF-70.0812117
aF18.6360575
aF-69.78121169999999
asg14
(lp93
F6.2724777
aF2.4490835
aF6.5724777
aF2.7490835
asg16
(lp94
F34.531962
aF-2.050155
aF34.831962
aF-1.7501550000000001
asg18
(lp95
F33.8681246
aF-5.1578451
aF34.1681246
aF-4.8578451
asg20
(lp96
F32.1508151
aF-9.3772033
aF32.4508151
aF-9.077203299999999
asg22
(lp97
F11.0149219
aF-4.4551542
aF11.3149219
aF-4.155154199999999
asg24
(lp98
F9.172601599999998
aF13.243389
aF9.472601599999999
aF13.543389000000001
asg26
(lp99
F31.4794723
aF-8.1310845
aF31.7794723
aF-7.8310845
asg28
(lp100
F7.6349087
aF2.0490763000000003
aF7.934908700000001
aF2.3490763
asg30
(lp101
F10.4425289
aF14.1710095
aF10.7425289
aF14.471009500000001
asg32
(lp102
F5.3307516999999995
aF10.2784178
aF5.6307517
aF10.5784178
asg34
(lp103
F35.6094651
aF-5.9839543
aF35.9094651
aF-5.683954299999999
asg36
(lp104
F3.6980325
aF11.3520752
aF3.9980325
aF11.6520752
asg38
(lp105
F-21.6046147
aF46.93750449999999
aF-21.304614700000002
aF47.237504499999986
asg40
(lp106
F32.736023
aF-7.0708655
aF33.036023
aF-6.770865499999999
asg42
(lp107
F33.0816326
aF-8.6507116
aF33.381632599999996
aF-8.350711599999999
asg44
(lp108
F-6.3244651
aF106.67274499999999
aF-6.0244651
aF106.972745
asg46
(lp109
F33.8215904
aF-6.9998129
aF34.121590399999995
aF-6.6998128999999995
asg48
(lp110
F-7.067463900000001
aF107.4691228
aF-6.7674639
aF107.7691228
asg50
(lp111
F5.142087699999999
aF-4.163361
aF5.4420877
aF-3.863361
asg52
(lp112
F30.277754700000003
aF-9.7481072
aF30.5777547
aF-9.448107199999999
asg54
(lp113
F5.4537168
aF-0.3369644
aF5.7537168
aF-0.03696440000000001
asg56
(lp114
F6.901357099999999
aF14.2844853
aF7.2013571
aF14.5844853
asg58
(lp115
F36.309621400000005
aF10.6330826
aF36.6096214
aF10.9330826
asg60
(lp116
F33.6653704
aF-6.2073302
aF33.9653704
aF-5.9073302
asg62
(lp117
F6.220292799999999
aF2.2412362
aF6.5202928
aF2.5412361999999997
asg64
(lp118
F32.84242419999999
aF-7.7722665
aF33.14242419999999
aF-7.472266499999999
asg66
(lp119
F32.192443000000004
aF-6.525799
aF32.492443
aF-6.225798999999999
asg68
(lp120
F4.824116899999999
aF9.7853318
aF5.1241169
aF10.0853318
asg70
(lp121
F26.9752867
aF-13.3125005
aF27.2752867
aF-13.0125005
asg72
(lp122
F33.7230164
aF-5.6907299
aF34.023016399999996
aF-5.390729899999999
asg74
(lp123
F6.677622799999999
aF-5.4393433
aF6.9776228
aF-5.139343299999999
asg76
(lp124
F6.9159131
aF-4.6454289
aF7.215913100000001
aF-4.345428899999999
asg78
(lp125
F0.26619760000000003
aF9.3172676
aF0.5661976
aF9.6172676
asg80
(lp126
F5.8130513
aF10.0091213
aF6.1130513
aF10.309121300000001
asg82
(lp127
F6.282945699999999
aF1.0573261
aF6.5829457
aF1.3573260999999999
asg84
(lp128
F3.9010564000000003
aF9.617868699999999
aF4.201056400000001
aF9.9178687
asaS'{"Madagascar":[{id: "1_1", name:"Fianarantsoa" },],"Indon\xc3\xa9sie":[{id: "2_1", name:"Jakarta" },{id: "2_2", name:"Surabaya" },{id: "2_3", name:"Bandung" },],"Cameroun":[{id: "3_1", name:"Yaound\xc3\xa9" },{id: "3_2", name:"Douala" },{id: "3_3", name:"Bamenda" },{id: "3_4", name:"Bafoussam" },{id: "3_5", name:"Ngaound\xc3\xa9r\xc3\xa9" },{id: "3_6", name:"Nkongsamba" },{id: "3_7", name:"Belel" },{id: "3_8", name:"Garoua" },{id: "3_9", name:"Maroua" },],"Maroc":[{id: "4_1", name:"F\xc3\xa8s" },{id: "4_2", name:"Rabat" },{id: "4_3", name:"Oujda" },{id: "4_4", name:"Agadir" },{id: "4_5", name:"K\xc3\xa9nitra" },{id: "4_6", name:"Beni melal" },{id: "4_7", name:"Marrakech" },{id: "4_8", name:"Khourigba" },{id: "4_9", name:"Ej Jadida" },{id: "4_10", name:"Settat" },{id: "4_11", name:"Safi" },{id: "4_12", name:"Khenisset" },{id: "4_13", name:"Laayoune" },{id: "4_14", name:"Meknes" },{id: "4_15", name:"Tanger" },],"Gabon":[{id: "5_1", name:"Libreville" },],"R\xc3\xa9publique Dominicaine":[{id: "6_1", name:"Santo Domingo" },],"Congo Brazza":[{id: "7_1", name:"Brazzaville" },],"Burkina Faso":[{id: "8_1", name:"Bobo-Dioulasso" },],"B\xc3\xa9nin":[{id: "9_1", name:"Dassa-Zoum\xc3\xa9" },{id: "9_2", name:"Cotonou" },{id: "9_3", name:"S\xc3\xa9m\xc3\xa9-Podji" },],"Ghana":[{id: "10_1", name:"Accra" },],"Tunisie":[{id: "11_1", name:"Beni Khiar" },],"Togo":[{id: "12_1", name:"Ts\xc3\xa9vi\xc3\xa9" },{id: "12_2", name:"Lom\xc3\xa9" },],"C\xc3\xb4te d\'ivoire":[{id: "13_1", name:"Treichville" },{id: "13_2", name:"Yamoussoukro" },{id: "13_3", name:"Bocanda" },]}'
p129
aS'{"1_1":[-21.4546147, 47.08750449999999],"2_1":[-6.1744651, 106.822745],"2_2":[-7.2574719, 112.7520883],"2_3":[-6.9174639, 107.6191228],"3_1":[3.8480325, 11.5020752],"3_2":[4.0510564, 9.7678687],"3_3":[5.9630513, 10.1591213],"3_4":[5.4807517, 10.4284178],"3_5":[7.338148800000001, 13.5668302],"3_6":[4.974116899999999, 9.9353318],"3_7":[7.0513571, 14.4344853],"3_8":[9.322601599999999, 13.393389],"3_9":[10.5925289, 14.3210095],"4_1":[34.0181246, -5.0078451],"4_2":[33.9715904, -6.8498129],"4_3":[34.681962, -1.900155],"4_4":[30.4277547, -9.5981072],"4_5":[34.2540503, -6.5890166],"4_6":[32.342443, -6.375799],"4_7":[31.6294723, -7.981084500000001],"4_8":[32.886023, -6.9208655],"4_9":[33.2316326, -8.500711599999999],"4_10":[32.99242419999999, -7.622266499999999],"4_11":[32.3008151, -9.2272033],"4_12":[33.8153704, -6.0573302],"4_13":[27.1252867, -13.1625005],"4_14":[33.8730164, -5.5407299],"4_15":[35.7594651, -5.833954299999999],"5_1":[0.4161976, 9.4672676],"6_1":[18.4860575, -69.93121169999999],"7_1":[-4.2633597, 15.2428853],"8_1":[11.1649219, -4.3051542],"9_1":[7.784908700000001, 2.1990763],"9_2":[6.3702928, 2.3912362],"9_3":[6.4224777, 2.5990835],"10_1":[5.6037168, -0.1869644],"11_1":[36.4596214, 10.7830826],"12_1":[6.432945699999999, 1.2073261],"12_2":[6.1724969, 1.2313618],"13_1":[5.2920877, -4.013361],"13_2":[6.827622799999999, -5.2893433],"13_3":[7.0659131, -4.495428899999999]}'
p130
aS'{"1_1":"Fianarantsoa","2_1":"Jakarta","2_2":"Surabaya","2_3":"Bandung","3_1":"Yaound\xc3\xa9","3_2":"Douala","3_3":"Bamenda","3_4":"Bafoussam","3_5":"Ngaound\xc3\xa9r\xc3\xa9","3_6":"Nkongsamba","3_7":"Belel","3_8":"Garoua","3_9":"Maroua","4_1":"F\xc3\xa8s","4_2":"Rabat","4_3":"Oujda","4_4":"Agadir","4_5":"K\xc3\xa9nitra","4_6":"Beni melal","4_7":"Marrakech","4_8":"Khourigba","4_9":"Ej Jadida","4_10":"Settat","4_11":"Safi","4_12":"Khenisset","4_13":"Laayoune","4_14":"Meknes","4_15":"Tanger","5_1":"Libreville","6_1":"Santo Domingo","7_1":"Brazzaville","8_1":"Bobo-Dioulasso","9_1":"Dassa-Zoum\xc3\xa9","9_2":"Cotonou","9_3":"S\xc3\xa9m\xc3\xa9-Podji","10_1":"Accra","11_1":"Beni Khiar","12_1":"Ts\xc3\xa9vi\xc3\xa9","12_2":"Lom\xc3\xa9","13_1":"Treichville","13_2":"Yamoussoukro","13_3":"Bocanda"}'
p131
aS'[{id: "1", name:"Madagascar" },{id: "2", name:"Indon\xc3\xa9sie" },{id: "3", name:"Cameroun" },{id: "4", name:"Maroc" },{id: "5", name:"Gabon" },{id: "6", name:"R\xc3\xa9publique Dominicaine" },{id: "7", name:"Congo Brazza" },{id: "8", name:"Burkina Faso" },{id: "9", name:"B\xc3\xa9nin" },{id: "10", name:"Ghana" },{id: "11", name:"Tunisie" },{id: "12", name:"Togo" },{id: "13", name:"C\xc3\xb4te d\'ivoire" },]'
p132
aS'{"1":"Madagascar","2":"Indon\xc3\xa9sie","3":"Cameroun","4":"Maroc","5":"Gabon","6":"R\xc3\xa9publique Dominicaine","7":"Congo Brazza","8":"Burkina Faso","9":"B\xc3\xa9nin","10":"Ghana","11":"Tunisie","12":"Togo","13":"C\xc3\xb4te d\'ivoire"}'
p133
aS"C\xc3\xb4te d'ivoire"
p134
ag76
ag77
a.